((lp0
(lp1
(dp2
S'parameters'
p3
cnumpy.core.multiarray
_reconstruct
p4
(cnumpy
ndarray
p5
(I0
tp6
S'b'
p7
tp8
Rp9
(I1
(I4
tp10
cnumpy
dtype
p11
(S'f8'
p12
I0
I1
tp13
Rp14
(I3
S'<'
p15
NNNI-1
I-1
I0
tp16
bI00
S'\x00\x00\x00\x00\x00\x00\x00\x00\xc7\xea\xf5\xc5\xe1\x83\xeb?B\xac\x97\xe9d\xa2\xf8?>\xcf\xfbV\xe3-\xd5?'
p17
tp18
bsS'sse_transfer'
p19
g4
(g5
(I0
tp20
g7
tp21
Rp22
(I1
(I1
I1
tp23
g14
I00
S'\xb5C5\xca\xb8W\xf0?'
p24
tp25
bsS'sse_effort'
p26
g4
(g5
(I0
tp27
g7
tp28
Rp29
(I1
(I1
tp30
g14
I00
S'\x8c\xe6\x9d\x8cI\xf2\xe6?'
p31
tp32
bsS'sse_utility'
p33
g4
(g5
(I0
tp34
g7
tp35
Rp36
(I1
(I1
tp37
g14
I00
S'H\xb6\x9e\xd9\xea>\xec?'
p38
tp39
bsS'se_obj'
p40
g4
(g5
(I0
tp41
g7
tp42
Rp43
(I1
(I1
tp44
g14
I00
S'@\xaf\x81\x81\xe3\xf1\xb2?'
p45
tp46
bsS'sys_quality'
p47
g4
(g5
(I0
tp48
g7
tp49
Rp50
(I1
(I1
tp51
g14
I00
S'\n\xaf\xa7g\xd0\xe6\xfc?'
p52
tp53
bsaa(lp54
(dp55
S'parameters'
p56
g4
(g5
(I0
tp57
g7
tp58
Rp59
(I1
(I4
tp60
g11
(S'f8'
p61
I0
I1
tp62
Rp63
(I3
S'<'
p64
NNNI-1
I-1
I0
tp65
bI00
S'O\x82\x07\x9ek\xdb\xb2?\xd7\xb4\x91tY;\xb8?N/\x88\xfck\xa9\xf6?\xdd\x9f\xa3\n_ \xa3?'
p66
tp67
bsS'sse_transfer'
p68
g4
(g5
(I0
tp69
g7
tp70
Rp71
(I1
(I1
I1
tp72
g63
I00
S'\xc5^\xf6g1\xf4\xe4?'
p73
tp74
bsS'sse_effort'
p75
g4
(g5
(I0
tp76
g7
tp77
Rp78
(I1
(I1
tp79
g63
I00
S'D\xca_>\xf9\x9b\xdb?'
p80
tp81
bsS'sse_utility'
p82
g4
(g5
(I0
tp83
g7
tp84
Rp85
(I1
(I1
tp86
g63
I00
S'\xec\xd65\x83\xabG\xc4?'
p87
tp88
bsS'se_obj'
p89
g4
(g5
(I0
tp90
g7
tp91
Rp92
(I1
(I1
tp93
g63
I00
S'\xff\xfc4\xde\xafB\xeb?'
p94
tp95
bsS'sys_quality'
p96
g4
(g5
(I0
tp97
g7
tp98
Rp99
(I1
(I1
tp100
g63
I00
S'\xb1\xc6\xf3\x96\x90\x17\xf8?'
p101
tp102
bsaa(lp103
(dp104
S'parameters'
p105
g4
(g5
(I0
tp106
g7
tp107
Rp108
(I1
(I4
tp109
g11
(S'f8'
p110
I0
I1
tp111
Rp112
(I3
S'<'
p113
NNNI-1
I-1
I0
tp114
bI00
S'\x00\x00\x00\x00\x00\x00\x00\x00@a\xde\x88\xef[\xf0?\xc6%\xdaNB\xe8\x0b@\xde\x01\xef\xa0n:\xdb?'
p115
tp116
bsS'sse_transfer'
p117
g4
(g5
(I0
tp118
g7
tp119
Rp120
(I1
(I1
I1
tp121
g112
I00
S'ss@/iG\xe8\xb9'
p122
tp123
bsS'sse_effort'
p124
g4
(g5
(I0
tp125
g7
tp126
Rp127
(I1
(I1
tp128
g112
I00
S'uKm\xaaX\x0e\xd8>'
p129
tp130
bsS'sse_utility'
p131
g4
(g5
(I0
tp132
g7
tp133
Rp134
(I1
(I1
tp135
g112
I00
S'\x00\x00\x00@\x13\xa42>'
p136
tp137
bsS'se_obj'
p138
g4
(g5
(I0
tp139
g7
tp140
Rp141
(I1
(I1
tp142
g112
I00
S'\xe7\xba; \xd5O\x9a<'
p143
tp144
bsS'sys_quality'
p145
g4
(g5
(I0
tp146
g7
tp147
Rp148
(I1
(I1
tp149
g112
I00
S'\x0c\x02\xafK\xc8=\x87?'
p150
tp151
bsaa(lp152
(dp153
S'parameters'
p154
g4
(g5
(I0
tp155
g7
tp156
Rp157
(I1
(I4
tp158
g11
(S'f8'
p159
I0
I1
tp160
Rp161
(I3
S'<'
p162
NNNI-1
I-1
I0
tp163
bI00
S'\x00\x00\x00\x00\x00\x00\x00\x00\x06\xbbO"\x91\x1d\xed?\x84\x08%a+H\xfc?\xfc\xce\xe7\x8f\r\x1e\xe3?'
p164
tp165
bsS'sse_transfer'
p166
g4
(g5
(I0
tp167
g7
tp168
Rp169
(I1
(I1
I1
tp170
g161
I00
S'\xa1\xe7*.\xe0FO='
p171
tp172
bsS'sse_effort'
p173
g4
(g5
(I0
tp174
g7
tp175
Rp176
(I1
(I1
tp177
g161
I00
S'\x9a\nwm}6\xef?'
p178
tp179
bsS'sse_utility'
p180
g4
(g5
(I0
tp181
g7
tp182
Rp183
(I1
(I1
tp184
g161
I00
S'\x12:\xad\xaaAI\xea?'
p185
tp186
bsS'se_obj'
p187
g4
(g5
(I0
tp188
g7
tp189
Rp190
(I1
(I1
tp191
g161
I00
S'\x00\x80\xf0\x8b\x94;\xff>'
p192
tp193
bsS'sys_quality'
p194
g4
(g5
(I0
tp195
g7
tp196
Rp197
(I1
(I1
tp198
g161
I00
S'\xe5\xd2z\xbbt\xe4\xff?'
p199
tp200
bsaag54
tp201
.