((lp0
(lp1
(dp2
S'parameters'
p3
cnumpy.core.multiarray
_reconstruct
p4
(cnumpy
ndarray
p5
(I0
tp6
S'b'
p7
tp8
Rp9
(I1
(I4
tp10
cnumpy
dtype
p11
(S'f8'
p12
I0
I1
tp13
Rp14
(I3
S'<'
p15
NNNI-1
I-1
I0
tp16
bI00
S'\x00\x00\x00\x00\x00\x00\x00\x00\xbc\xacE\xba\xdf\x8e\xf7?a\xb5y\xa2R\xea\xf2?\xa0f\xe4\n\xfc\xea\x9a?'
p17
tp18
bsS'sse_transfer'
p19
g4
(g5
(I0
tp20
g7
tp21
Rp22
(I1
(I1
I1
tp23
g14
I00
S'\x00k\xba8K\x98\x00:'
p24
tp25
bsS'sse_effort'
p26
g4
(g5
(I0
tp27
g7
tp28
Rp29
(I1
(I1
tp30
g14
I00
S'\x00\x00\x00\x00\x00\x00\xf0?'
p31
tp32
bsS'sse_utility'
p33
g4
(g5
(I0
tp34
g7
tp35
Rp36
(I1
(I1
tp37
g14
I00
S'\x1b)V\xc8\xa8%\xdc?'
p38
tp39
bsS'se_obj'
p40
g4
(g5
(I0
tp41
g7
tp42
Rp43
(I1
(I1
tp44
g14
I00
S'`\xb9\xc9\xbe\xcc\xa7\xc0?'
p45
tp46
bsS'sys_quality'
p47
g4
(g5
(I0
tp48
g7
tp49
Rp50
(I1
(I1
tp51
g14
I00
S'233333\xf3?'
p52
tp53
bsaag1
tp54
.